target datalayout = "e-m:e-p270:32:32-p271:32:32-p272:64:64-i64:64-i128:128-f80:128-n8:16:32:64-S128"
target triple = "x86_64-pc-linux-gnu"

%struct.strvec = type { ptr, i64, i64 }
%struct.strbuf = type { i64, i64, ptr }
%struct.am_state = type { ptr, i32, i32, ptr, ptr, ptr, ptr, i64, %struct.object_id, i32, i32, i32, i32, i32, i32, i32, i32, i32, i32, i32, i32, %struct.strvec, ptr, i32, i32, i32, ptr, i32 }
%struct.object_id = type { [32 x i8], i32 }
%struct.child_process = type { %struct.strvec, %struct.strvec, i32, i32, i64, ptr, ptr, i32, i32, i32, ptr, i16, ptr }

@.str.72 = private unnamed_addr constant [1 x i8] zeroinitializer, align 1
@the_repository = external global ptr, align 8
@.str.83 = private unnamed_addr constant [6 x i8] c"%s/%s\00", align 1
@.str.125 = private unnamed_addr constant [13 x i8] c"final-commit\00", align 1
@git_gettext_enabled = external global i32, align 4
@stdin = external global ptr, align 8
@.str.183 = private unnamed_addr constant [3 x i8] c"%s\00", align 1
@.str.188 = private unnamed_addr constant [6 x i8] c"patch\00", align 1
@.str.218 = private unnamed_addr constant [16 x i8] c"Commit Body is:\00", align 1
@.str.219 = private unnamed_addr constant [27 x i8] c"--------------------------\00", align 1
@.str.220 = private unnamed_addr constant [53 x i8] c"Apply? [y]es/[n]o/[e]dit/[v]iew patch/[a]ccept all: \00", align 1
@.str.221 = private unnamed_addr constant [36 x i8] c"unable to read from stdin; aborting\00", align 1
@__const.do_interactive.msg = private unnamed_addr constant %struct.strbuf { i64 0, i64 0, ptr @strbuf_slopbuf }, align 8
@.str.222 = private unnamed_addr constant [4 x i8] c"cat\00", align 1

; Function Attrs: inlinehint nounwind uwtable
define internal ptr @am_path(ptr noundef %0, ptr noundef %1) #5 {
  %3 = alloca ptr, align 8
  %4 = alloca ptr, align 8
  store ptr %0, ptr %3, align 8, !tbaa !47
  store ptr %1, ptr %4, align 8, !tbaa !11
  %5 = load ptr, ptr %3, align 8, !tbaa !47
  %6 = getelementptr inbounds nuw %struct.am_state, ptr %5, i32 0, i32 0
  %7 = load ptr, ptr %6, align 8, !tbaa !31
  %8 = load ptr, ptr %4, align 8, !tbaa !11
  %9 = call ptr (ptr, ...) @mkpath(ptr noundef @.str.83, ptr noundef %7, ptr noundef %8)
  ret ptr %9
}

; Function Attrs: inlinehint nounwind uwtable
define internal ptr @_(ptr noundef %0) #5 {
  %2 = alloca ptr, align 8
  %3 = alloca ptr, align 8
  store ptr %0, ptr %3, align 8, !tbaa !11
  %4 = load ptr, ptr %3, align 8, !tbaa !11
  %5 = load i8, ptr %4, align 1, !tbaa !84
  %6 = icmp ne i8 %5, 0
  br i1 %6, label %8, label %7

7:                                                ; preds = %1
  store ptr @.str.72, ptr %2, align 8
  br label %16

8:                                                ; preds = %1
  %9 = load i32, ptr @git_gettext_enabled, align 4, !tbaa !4
  %10 = icmp ne i32 %9, 0
  br i1 %10, label %13, label %11

11:                                               ; preds = %8
  %12 = load ptr, ptr %3, align 8, !tbaa !11
  store ptr %12, ptr %2, align 8
  br label %16

13:                                               ; preds = %8
  %14 = load ptr, ptr %3, align 8, !tbaa !11
  %15 = call ptr @dcgettext(ptr noundef null, ptr noundef %14, i32 noundef 5) #14
  store ptr %15, ptr %2, align 8
  br label %16

16:                                               ; preds = %13, %11, %7
  %17 = load ptr, ptr %2, align 8
  ret ptr %17
}

; Function Attrs: nounwind uwtable
define internal i32 @do_interactive(ptr noundef %0) #0 {
  %2 = alloca i32, align 4
  %3 = alloca ptr, align 8
  %4 = alloca [64 x i8], align 16
  %5 = alloca i32, align 4
  %6 = alloca %struct.strbuf, align 8
  %7 = alloca ptr, align 8
  %8 = alloca %struct.child_process, align 8
  store ptr %0, ptr %3, align 8, !tbaa !47
  br label %9

9:                                                ; preds = %115, %1
  call void @llvm.lifetime.start.p0(i64 64, ptr %4) #14
  %10 = call ptr @_(ptr noundef @.str.218)
  %11 = call i32 @puts(ptr noundef %10)
  %12 = call i32 @puts(ptr noundef @.str.219)
  %13 = load ptr, ptr %3, align 8, !tbaa !47
  %14 = getelementptr inbounds nuw %struct.am_state, ptr %13, i32 0, i32 6
  %15 = load ptr, ptr %14, align 8, !tbaa !85
  %16 = call i32 (ptr, ...) @printf(ptr noundef @.str.183, ptr noundef %15)
  %17 = call i32 @puts(ptr noundef @.str.219)
  %18 = call ptr @_(ptr noundef @.str.220)
  %19 = call i32 (ptr, ...) @printf(ptr noundef %18)
  %20 = getelementptr inbounds [64 x i8], ptr %4, i64 0, i64 0
  %21 = load ptr, ptr @stdin, align 8, !tbaa !29
  %22 = call ptr @fgets(ptr noundef %20, i32 noundef 64, ptr noundef %21)
  %23 = icmp ne ptr %22, null
  br i1 %23, label %25, label %24

24:                                               ; preds = %9
  call void (ptr, ...) @die(ptr noundef @.str.221) #15
  unreachable

25:                                               ; preds = %9
  %26 = getelementptr inbounds [64 x i8], ptr %4, i64 0, i64 0
  %27 = load i8, ptr %26, align 16, !tbaa !84
  %28 = sext i8 %27 to i32
  %29 = icmp eq i32 %28, 121
  br i1 %29, label %35, label %30

30:                                               ; preds = %25
  %31 = getelementptr inbounds [64 x i8], ptr %4, i64 0, i64 0
  %32 = load i8, ptr %31, align 16, !tbaa !84
  %33 = sext i8 %32 to i32
  %34 = icmp eq i32 %33, 89
  br i1 %34, label %35, label %36

35:                                               ; preds = %30, %25
  store i32 0, ptr %2, align 4
  store i32 1, ptr %5, align 4
  br label %113

36:                                               ; preds = %30
  %37 = getelementptr inbounds [64 x i8], ptr %4, i64 0, i64 0
  %38 = load i8, ptr %37, align 16, !tbaa !84
  %39 = sext i8 %38 to i32
  %40 = icmp eq i32 %39, 97
  br i1 %40, label %46, label %41

41:                                               ; preds = %36
  %42 = getelementptr inbounds [64 x i8], ptr %4, i64 0, i64 0
  %43 = load i8, ptr %42, align 16, !tbaa !84
  %44 = sext i8 %43 to i32
  %45 = icmp eq i32 %44, 65
  br i1 %45, label %46, label %49

46:                                               ; preds = %41, %36
  %47 = load ptr, ptr %3, align 8, !tbaa !47
  %48 = getelementptr inbounds nuw %struct.am_state, ptr %47, i32 0, i32 10
  store i32 0, ptr %48, align 8, !tbaa !39
  store i32 0, ptr %2, align 4
  store i32 1, ptr %5, align 4
  br label %113

49:                                               ; preds = %41
  %50 = getelementptr inbounds [64 x i8], ptr %4, i64 0, i64 0
  %51 = load i8, ptr %50, align 16, !tbaa !84
  %52 = sext i8 %51 to i32
  %53 = icmp eq i32 %52, 110
  br i1 %53, label %59, label %54

54:                                               ; preds = %49
  %55 = getelementptr inbounds [64 x i8], ptr %4, i64 0, i64 0
  %56 = load i8, ptr %55, align 16, !tbaa !84
  %57 = sext i8 %56 to i32
  %58 = icmp eq i32 %57, 78
  br i1 %58, label %59, label %60

59:                                               ; preds = %54, %49
  store i32 1, ptr %2, align 4
  store i32 1, ptr %5, align 4
  br label %113

60:                                               ; preds = %54
  %61 = getelementptr inbounds [64 x i8], ptr %4, i64 0, i64 0
  %62 = load i8, ptr %61, align 16, !tbaa !84
  %63 = sext i8 %62 to i32
  %64 = icmp eq i32 %63, 101
  br i1 %64, label %70, label %65

65:                                               ; preds = %60
  %66 = getelementptr inbounds [64 x i8], ptr %4, i64 0, i64 0
  %67 = load i8, ptr %66, align 16, !tbaa !84
  %68 = sext i8 %67 to i32
  %69 = icmp eq i32 %68, 69
  br i1 %69, label %70, label %85

70:                                               ; preds = %65, %60
  call void @llvm.lifetime.start.p0(i64 24, ptr %6) #14
  call void @llvm.memcpy.p0.p0.i64(ptr align 8 %6, ptr align 8 @__const.do_interactive.msg, i64 24, i1 false)
  %71 = load ptr, ptr %3, align 8, !tbaa !47
  %72 = call ptr @am_path(ptr noundef %71, ptr noundef @.str.125)
  %73 = call i32 @launch_editor(ptr noundef %72, ptr noundef %6, ptr noundef null)
  %74 = icmp ne i32 %73, 0
  br i1 %74, label %84, label %75

75:                                               ; preds = %70
  %76 = load ptr, ptr %3, align 8, !tbaa !47
  %77 = getelementptr inbounds nuw %struct.am_state, ptr %76, i32 0, i32 6
  %78 = load ptr, ptr %77, align 8, !tbaa !85
  call void @free(ptr noundef %78) #14
  %79 = load ptr, ptr %3, align 8, !tbaa !47
  %80 = getelementptr inbounds nuw %struct.am_state, ptr %79, i32 0, i32 7
  %81 = call ptr @strbuf_detach(ptr noundef %6, ptr noundef %80)
  %82 = load ptr, ptr %3, align 8, !tbaa !47
  %83 = getelementptr inbounds nuw %struct.am_state, ptr %82, i32 0, i32 6
  store ptr %81, ptr %83, align 8, !tbaa !85
  br label %84

84:                                               ; preds = %75, %70
  call void @strbuf_release(ptr noundef %6)
  call void @llvm.lifetime.end.p0(i64 24, ptr %6) #14
  br label %109

85:                                               ; preds = %65
  %86 = getelementptr inbounds [64 x i8], ptr %4, i64 0, i64 0
  %87 = load i8, ptr %86, align 16, !tbaa !84
  %88 = sext i8 %87 to i32
  %89 = icmp eq i32 %88, 118
  br i1 %89, label %95, label %90

90:                                               ; preds = %85
  %91 = getelementptr inbounds [64 x i8], ptr %4, i64 0, i64 0
  %92 = load i8, ptr %91, align 16, !tbaa !84
  %93 = sext i8 %92 to i32
  %94 = icmp eq i32 %93, 86
  br i1 %94, label %95, label %108

95:                                               ; preds = %90, %85
  call void @llvm.lifetime.start.p0(i64 8, ptr %7) #14
  %96 = load ptr, ptr @the_repository, align 8, !tbaa !13
  %97 = call ptr @git_pager(ptr noundef %96, i32 noundef 1)
  store ptr %97, ptr %7, align 8, !tbaa !11
  call void @llvm.lifetime.start.p0(i64 120, ptr %8) #14
  call void @llvm.memcpy.p0.p0.i64(ptr align 8 %8, ptr align 8 @__const.do_interactive.cp, i64 120, i1 false)
  %98 = load ptr, ptr %7, align 8, !tbaa !11
  %99 = icmp ne ptr %98, null
  br i1 %99, label %101, label %100

100:                                              ; preds = %95
  store ptr @.str.222, ptr %7, align 8, !tbaa !11
  br label %101

101:                                              ; preds = %100, %95
  %102 = load ptr, ptr %7, align 8, !tbaa !11
  call void @prepare_pager_args(ptr noundef %8, ptr noundef %102)
  %103 = getelementptr inbounds nuw %struct.child_process, ptr %8, i32 0, i32 0
  %104 = load ptr, ptr %3, align 8, !tbaa !47
  %105 = call ptr @am_path(ptr noundef %104, ptr noundef @.str.188)
  %106 = call ptr @strvec_push(ptr noundef %103, ptr noundef %105)
  %107 = call i32 @run_command(ptr noundef %8)
  call void @llvm.lifetime.end.p0(i64 120, ptr %8) #14
  call void @llvm.lifetime.end.p0(i64 8, ptr %7) #14
  br label %108

108:                                              ; preds = %101, %90
  br label %109

109:                                              ; preds = %108, %84
  br label %110

110:                                              ; preds = %109
  br label %111

111:                                              ; preds = %110
  br label %112

112:                                              ; preds = %111
  store i32 0, ptr %5, align 4
  br label %113

113:                                              ; preds = %112, %59, %46, %35
  call void @llvm.lifetime.end.p0(i64 64, ptr %4) #14
  %114 = load i32, ptr %5, align 4
  switch i32 %114, label %118 [
    i32 0, label %115
    i32 1, label %116
  ]

115:                                              ; preds = %113
  br label %9

116:                                              ; preds = %113
  %117 = load i32, ptr %2, align 4
  ret i32 %117

118:                                              ; preds = %113
  unreachable
}