; Function Attrs: nounwind uwtable
define internal fastcc range(i32 0, 2) i32 @do_interactive(ptr noundef nonnull %0) unnamed_addr #0 {
  %2 = alloca [64 x i8], align 16
  %3 = alloca %struct.strbuf, align 8
  %4 = alloca %struct.child_process, align 8
  %5 = getelementptr inbounds nuw i8, ptr %0, i64 40
  %6 = getelementptr inbounds nuw i8, ptr %0, i64 48
  br label %7

7:                                                ; preds = %41, %1
  call void @llvm.lifetime.start.p0(i64 64, ptr nonnull %2) #21
  %8 = load i32, ptr @git_gettext_enabled, align 4, !tbaa !4
  %.not4.i = icmp eq i32 %8, 0
  br i1 %.not4.i, label %_.exit, label %9

9:                                                ; preds = %7
  %10 = call ptr @dcgettext(ptr noundef null, ptr noundef nonnull @.str.218, i32 noundef 5) #21
  br label %_.exit

_.exit:                                           ; preds = %7, %9
  %.0.i = phi ptr [ %10, %9 ], [ @.str.218, %7 ]
  %11 = call i32 @puts(ptr noundef nonnull dereferenceable(1) %.0.i)
  %12 = call i32 @puts(ptr noundef nonnull dereferenceable(1) @.str.219)
  %13 = load ptr, ptr %5, align 8, !tbaa !39
  %14 = call i32 (ptr, ...) @printf(ptr noundef nonnull dereferenceable(1) @.str.183, ptr noundef %13)
  %15 = call i32 @puts(ptr noundef nonnull dereferenceable(1) @.str.219)
  %16 = load i32, ptr @git_gettext_enabled, align 4, !tbaa !4
  %.not4.i34 = icmp eq i32 %16, 0
  br i1 %.not4.i34, label %_.exit36, label %17

17:                                               ; preds = %_.exit
  %18 = call ptr @dcgettext(ptr noundef null, ptr noundef nonnull @.str.220, i32 noundef 5) #21
  br label %_.exit36

_.exit36:                                         ; preds = %_.exit, %17
  %.0.i35 = phi ptr [ %18, %17 ], [ @.str.220, %_.exit ]
  %19 = call i32 (ptr, ...) @printf(ptr noundef nonnull dereferenceable(1) %.0.i35)
  %20 = load ptr, ptr @stdin, align 8, !tbaa !36
  %21 = call ptr @fgets(ptr noundef nonnull %2, i32 noundef 64, ptr noundef %20)
  %.not = icmp eq ptr %21, null
  br i1 %.not, label %22, label %23

22:                                               ; preds = %_.exit36
  call void (ptr, ...) @die(ptr noundef nonnull @.str.221) #22
  unreachable

23:                                               ; preds = %_.exit36
  %24 = load i8, ptr %2, align 16, !tbaa !47
  %25 = and i8 %24, -33
  switch i8 %25, label %41 [
    i8 89, label %.fold.split.loopexit42
    i8 65, label %26
    i8 78, label %.fold.split
    i8 69, label %28
    i8 86, label %35
  ]

26:                                               ; preds = %23
  %27 = getelementptr inbounds nuw i8, ptr %0, i64 96
  store i32 0, ptr %27, align 8, !tbaa !48
  br label %.fold.split

28:                                               ; preds = %23
  call void @llvm.lifetime.start.p0(i64 24, ptr nonnull %3) #21
  call void @llvm.memcpy.p0.p0.i64(ptr noundef nonnull align 8 dereferenceable(24) %3, ptr noundef nonnull align 8 dereferenceable(24) @__const.show_patch.sb, i64 24, i1 false)
  %.val33 = load ptr, ptr %0, align 8, !tbaa !23
  %29 = call ptr (ptr, ...) @mkpath(ptr noundef nonnull @.str.83, ptr noundef %.val33, ptr noundef nonnull @.str.125) #21
  %30 = call i32 @launch_editor(ptr noundef %29, ptr noundef nonnull %3, ptr noundef null) #21
  %.not32 = icmp eq i32 %30, 0
  br i1 %.not32, label %31, label %34

31:                                               ; preds = %28
  %32 = load ptr, ptr %5, align 8, !tbaa !39
  call void @free(ptr noundef %32) #21
  %33 = call ptr @strbuf_detach(ptr noundef nonnull %3, ptr noundef nonnull %6) #21
  store ptr %33, ptr %5, align 8, !tbaa !39
  br label %34

34:                                               ; preds = %31, %28
  call void @strbuf_release(ptr noundef nonnull %3) #21
  call void @llvm.lifetime.end.p0(i64 24, ptr nonnull %3) #21
  br label %41

35:                                               ; preds = %23
  %36 = load ptr, ptr @the_repository, align 8, !tbaa !21
  %37 = call ptr @git_pager(ptr noundef %36, i32 noundef 1) #21
  call void @llvm.lifetime.start.p0(i64 120, ptr nonnull %4) #21
  call void @llvm.memcpy.p0.p0.i64(ptr noundef nonnull align 8 dereferenceable(120) %4, ptr noundef nonnull align 8 dereferenceable(120) @__const.show_patch.cmd, i64 120, i1 false)
  %.not31 = icmp eq ptr %37, null
  %spec.store.select = select i1 %.not31, ptr @.str.222, ptr %37
  call void @prepare_pager_args(ptr noundef nonnull %4, ptr noundef nonnull %spec.store.select) #21
  %.val = load ptr, ptr %0, align 8, !tbaa !23
  %38 = call ptr (ptr, ...) @mkpath(ptr noundef nonnull @.str.83, ptr noundef %.val, ptr noundef nonnull @.str.188) #21
  %39 = call ptr @strvec_push(ptr noundef nonnull %4, ptr noundef %38) #21
  %40 = call i32 @run_command(ptr noundef nonnull %4) #21
  call void @llvm.lifetime.end.p0(i64 120, ptr nonnull %4) #21
  br label %41

41:                                               ; preds = %23, %35, %34
  call void @llvm.lifetime.end.p0(i64 64, ptr nonnull %2) #21
  br label %7

.fold.split.loopexit42:                           ; preds = %23
  br label %.fold.split

.fold.split:                                      ; preds = %23, %.fold.split.loopexit42, %26
  %.1.ph = phi i32 [ 0, %26 ], [ 0, %.fold.split.loopexit42 ], [ 1, %23 ]
  call void @llvm.lifetime.end.p0(i64 64, ptr nonnull %2) #21
  ret i32 %.1.ph
}